; Function Attrs: nounwind uwtable
define internal noundef i32 @_blendop_blendif_invert(ptr readnone captures(none) %0, ptr readnone captures(none) %1, ptr noundef %2) #0 {
  %4 = load ptr, ptr getelementptr inbounds nuw (i8, ptr @darktable, i64 104), align 8, !tbaa !33
  %5 = getelementptr inbounds nuw i8, ptr %4, i64 96
  %6 = load i32, ptr %5, align 8, !tbaa !66
  %.not = icmp eq i32 %6, 0
  br i1 %.not, label %7, label %24

7:                                                ; preds = %3
  %8 = getelementptr inbounds nuw i8, ptr %2, i64 776
  %9 = load ptr, ptr %8, align 8, !tbaa !6
  %10 = getelementptr inbounds nuw i8, ptr %9, i64 380
  %11 = load i32, ptr %10, align 4, !tbaa !78
  %switch.tableidx = add i32 %11, -2
  %12 = icmp ult i32 %switch.tableidx, 3
  br i1 %12, label %switch.lookup, label %14

switch.lookup:                                    ; preds = %7
  %13 = zext nneg i32 %switch.tableidx to i64
  %switch.gep = getelementptr inbounds nuw [3 x i32], ptr @switch.table._blendop_blendif_invert, i64 0, i64 %13
  %switch.load = load i32, ptr %switch.gep, align 4
  br label %14

14:                                               ; preds = %switch.lookup, %7
  %.0 = phi i32 [ 0, %7 ], [ %switch.load, %switch.lookup ]
  %15 = getelementptr inbounds nuw i8, ptr %2, i64 760
  %16 = load ptr, ptr %15, align 8, !tbaa !71
  %17 = getelementptr inbounds nuw i8, ptr %16, i64 28
  %18 = load i32, ptr %17, align 4, !tbaa !116
  %19 = xor i32 %18, %.0
  store i32 %19, ptr %17, align 4, !tbaa !116
  %20 = getelementptr inbounds nuw i8, ptr %16, i64 20
  %21 = load i32, ptr %20, align 4, !tbaa !118
  %22 = xor i32 %21, 6
  store i32 %22, ptr %20, align 4, !tbaa !118
  tail call void @dt_iop_gui_update_blending(ptr noundef nonnull %2)
  %23 = load ptr, ptr getelementptr inbounds nuw (i8, ptr @darktable, i64 64), align 8, !tbaa !119
  tail call void @dt_dev_add_history_item(ptr noundef %23, ptr noundef nonnull %2, i32 noundef 1) #18
  br label %24

24:                                               ; preds = %3, %14
  ret i32 1
}